target datalayout = "e-m:e-p270:32:32-p271:32:32-p272:64:64-i64:64-i128:128-f80:128-n8:16:32:64-S128"
target triple = "x86_64-pc-linux-gnu"

%"class.pxrInternal_v0_24__pxrReserved__::PcpExpressionVariablesSource" = type { %"class.std::shared_ptr" }
%"class.std::shared_ptr" = type { %"class.std::__shared_ptr" }
%"class.std::__shared_ptr" = type { ptr, %"class.std::__shared_count" }
%"class.std::__shared_count" = type { ptr }

; Function Attrs: mustprogress nounwind uwtable
define linkonce_odr noundef ptr @_ZNKSt12__shared_ptrIN32pxrInternal_v0_24__pxrReserved__23PcpLayerStackIdentifierELN9__gnu_cxx12_Lock_policyE2EE3getEv(ptr noundef nonnull align 8 dereferenceable(16) %0) #0 comdat align 2 {
  %2 = alloca ptr, align 8
  store ptr %0, ptr %2, align 8
  %3 = load ptr, ptr %2, align 8
  %4 = getelementptr inbounds nuw %"class.std::__shared_ptr", ptr %3, i32 0, i32 0
  %5 = load ptr, ptr %4, align 8
  ret ptr %5
}

; Function Attrs: mustprogress nounwind uwtable
define linkonce_odr noundef ptr @_ZNKSt19__shared_ptr_accessIN32pxrInternal_v0_24__pxrReserved__23PcpLayerStackIdentifierELN9__gnu_cxx12_Lock_policyE2ELb0ELb0EE6_M_getEv(ptr noundef nonnull align 1 dereferenceable(1) %0) #0 comdat align 2 {
  %2 = alloca ptr, align 8
  store ptr %0, ptr %2, align 8
  %3 = load ptr, ptr %2, align 8
  %4 = call noundef ptr @_ZNKSt12__shared_ptrIN32pxrInternal_v0_24__pxrReserved__23PcpLayerStackIdentifierELN9__gnu_cxx12_Lock_policyE2EE3getEv(ptr noundef nonnull align 8 dereferenceable(16) %3) #9
  ret ptr %4
}

; Function Attrs: mustprogress nounwind uwtable
define linkonce_odr noundef nonnull align 8 dereferenceable(80) ptr @_ZNKSt19__shared_ptr_accessIN32pxrInternal_v0_24__pxrReserved__23PcpLayerStackIdentifierELN9__gnu_cxx12_Lock_policyE2ELb0ELb0EEdeEv(ptr noundef nonnull align 1 dereferenceable(1) %0) #0 comdat align 2 {
  %2 = alloca ptr, align 8
  store ptr %0, ptr %2, align 8
  %3 = load ptr, ptr %2, align 8
  br label %4

4:                                                ; preds = %1
  br label %5

5:                                                ; preds = %4
  br label %6

6:                                                ; preds = %5
  %7 = call noundef ptr @_ZNKSt19__shared_ptr_accessIN32pxrInternal_v0_24__pxrReserved__23PcpLayerStackIdentifierELN9__gnu_cxx12_Lock_policyE2ELb0ELb0EE6_M_getEv(ptr noundef nonnull align 1 dereferenceable(1) %3) #9
  ret ptr %7
}

; Function Attrs: mustprogress nounwind uwtable
define linkonce_odr noundef zeroext i1 @_ZNKSt12__shared_ptrIN32pxrInternal_v0_24__pxrReserved__23PcpLayerStackIdentifierELN9__gnu_cxx12_Lock_policyE2EEcvbEv(ptr noundef nonnull align 8 dereferenceable(16) %0) #0 comdat align 2 {
  %2 = alloca ptr, align 8
  store ptr %0, ptr %2, align 8
  %3 = load ptr, ptr %2, align 8
  %4 = getelementptr inbounds nuw %"class.std::__shared_ptr", ptr %3, i32 0, i32 0
  %5 = load ptr, ptr %4, align 8
  %6 = icmp ne ptr %5, null
  ret i1 %6
}

; Function Attrs: mustprogress uwtable
define noundef zeroext i1 @_ZNK32pxrInternal_v0_24__pxrReserved__28PcpExpressionVariablesSourceeqERKS0_(ptr noundef nonnull align 8 dereferenceable(16) %0, ptr noundef nonnull align 8 dereferenceable(16) %1) #1 align 2 {
  %3 = alloca i1, align 1
  %4 = alloca ptr, align 8
  %5 = alloca ptr, align 8
  %6 = alloca i8, align 1
  %7 = alloca i8, align 1
  store ptr %0, ptr %4, align 8
  store ptr %1, ptr %5, align 8
  %8 = load ptr, ptr %4, align 8
  %9 = load ptr, ptr %5, align 8
  %10 = icmp eq ptr %8, %9
  br i1 %10, label %11, label %12

11:                                               ; preds = %2
  store i1 true, ptr %3, align 1
  br label %40

12:                                               ; preds = %2
  %13 = getelementptr inbounds nuw %"class.pxrInternal_v0_24__pxrReserved__::PcpExpressionVariablesSource", ptr %8, i32 0, i32 0
  %14 = call noundef zeroext i1 @_ZNKSt12__shared_ptrIN32pxrInternal_v0_24__pxrReserved__23PcpLayerStackIdentifierELN9__gnu_cxx12_Lock_policyE2EEcvbEv(ptr noundef nonnull align 8 dereferenceable(16) %13) #9
  %15 = zext i1 %14 to i8
  store i8 %15, ptr %6, align 1
  %16 = load ptr, ptr %5, align 8
  %17 = getelementptr inbounds nuw %"class.pxrInternal_v0_24__pxrReserved__::PcpExpressionVariablesSource", ptr %16, i32 0, i32 0
  %18 = call noundef zeroext i1 @_ZNKSt12__shared_ptrIN32pxrInternal_v0_24__pxrReserved__23PcpLayerStackIdentifierELN9__gnu_cxx12_Lock_policyE2EEcvbEv(ptr noundef nonnull align 8 dereferenceable(16) %17) #9
  %19 = zext i1 %18 to i8
  store i8 %19, ptr %7, align 1
  %20 = load i8, ptr %6, align 1
  %21 = trunc i8 %20 to i1
  br i1 %21, label %22, label %32

22:                                               ; preds = %12
  %23 = load i8, ptr %7, align 1
  %24 = trunc i8 %23 to i1
  br i1 %24, label %25, label %32

25:                                               ; preds = %22
  %26 = getelementptr inbounds nuw %"class.pxrInternal_v0_24__pxrReserved__::PcpExpressionVariablesSource", ptr %8, i32 0, i32 0
  %27 = call noundef nonnull align 8 dereferenceable(80) ptr @_ZNKSt19__shared_ptr_accessIN32pxrInternal_v0_24__pxrReserved__23PcpLayerStackIdentifierELN9__gnu_cxx12_Lock_policyE2ELb0ELb0EEdeEv(ptr noundef nonnull align 1 dereferenceable(1) %26) #9
  %28 = load ptr, ptr %5, align 8
  %29 = getelementptr inbounds nuw %"class.pxrInternal_v0_24__pxrReserved__::PcpExpressionVariablesSource", ptr %28, i32 0, i32 0
  %30 = call noundef nonnull align 8 dereferenceable(80) ptr @_ZNKSt19__shared_ptr_accessIN32pxrInternal_v0_24__pxrReserved__23PcpLayerStackIdentifierELN9__gnu_cxx12_Lock_policyE2ELb0ELb0EEdeEv(ptr noundef nonnull align 1 dereferenceable(1) %29) #9
  %31 = call noundef zeroext i1 @_ZNK32pxrInternal_v0_24__pxrReserved__23PcpLayerStackIdentifiereqERKS0_(ptr noundef nonnull align 8 dereferenceable(80) %27, ptr noundef nonnull align 8 dereferenceable(80) %30)
  store i1 %31, ptr %3, align 1
  br label %40

32:                                               ; preds = %22, %12
  %33 = load i8, ptr %6, align 1
  %34 = trunc i8 %33 to i1
  %35 = zext i1 %34 to i32
  %36 = load i8, ptr %7, align 1
  %37 = trunc i8 %36 to i1
  %38 = zext i1 %37 to i32
  %39 = icmp eq i32 %35, %38
  store i1 %39, ptr %3, align 1
  br label %40

40:                                               ; preds = %32, %25, %11
  %41 = load i1, ptr %3, align 1
  ret i1 %41
}

; Function Attrs: mustprogress uwtable
define noundef zeroext i1 @_ZNK32pxrInternal_v0_24__pxrReserved__28PcpExpressionVariablesSourceneERKS0_(ptr noundef nonnull align 8 dereferenceable(16) %0, ptr noundef nonnull align 8 dereferenceable(16) %1) #1 align 2 {
  %3 = alloca ptr, align 8
  %4 = alloca ptr, align 8
  store ptr %0, ptr %3, align 8
  store ptr %1, ptr %4, align 8
  %5 = load ptr, ptr %3, align 8
  %6 = load ptr, ptr %4, align 8
  %7 = call noundef zeroext i1 @_ZNK32pxrInternal_v0_24__pxrReserved__28PcpExpressionVariablesSourceeqERKS0_(ptr noundef nonnull align 8 dereferenceable(16) %5, ptr noundef nonnull align 8 dereferenceable(16) %6)
  %8 = xor i1 %7, true
  ret i1 %8
}