; Function Attrs: mustprogress uwtable
define noundef zeroext i1 @_ZNK32pxrInternal_v0_24__pxrReserved__28PcpExpressionVariablesSourceneERKS0_(ptr noundef nonnull readonly align 8 dereferenceable(16) %0, ptr noundef nonnull readonly align 8 dereferenceable(16) %1) local_unnamed_addr #1 align 2 {
  %3 = icmp eq ptr %0, %1
  br i1 %3, label %_ZNK32pxrInternal_v0_24__pxrReserved__28PcpExpressionVariablesSourceeqERKS0_.exit, label %4

4:                                                ; preds = %2
  %5 = load ptr, ptr %0, align 8
  %6 = icmp ne ptr %5, null
  %7 = load ptr, ptr %1, align 8
  %8 = icmp ne ptr %7, null
  %brmerge.demorgan.i = and i1 %6, %8
  br i1 %brmerge.demorgan.i, label %9, label %12

9:                                                ; preds = %4
  %10 = tail call noundef zeroext i1 @_ZNK32pxrInternal_v0_24__pxrReserved__23PcpLayerStackIdentifiereqERKS0_(ptr noundef nonnull align 8 dereferenceable(80) %5, ptr noundef nonnull align 8 dereferenceable(80) %7)
  %11 = xor i1 %10, true
  br label %_ZNK32pxrInternal_v0_24__pxrReserved__28PcpExpressionVariablesSourceeqERKS0_.exit

12:                                               ; preds = %4
  %13 = xor i1 %6, %8
  br label %_ZNK32pxrInternal_v0_24__pxrReserved__28PcpExpressionVariablesSourceeqERKS0_.exit

_ZNK32pxrInternal_v0_24__pxrReserved__28PcpExpressionVariablesSourceeqERKS0_.exit: ; preds = %2, %9, %12
  %.0.i = phi i1 [ %11, %9 ], [ %13, %12 ], [ false, %2 ]
  ret i1 %.0.i
}